; Function Attrs: mustprogress uwtable
define internal void @_ZL33llama_sampler_grammar_accept_implP13llama_sampleri(ptr noundef readonly captures(none) %0, i32 noundef %1) #0 {
  %3 = getelementptr inbounds nuw i8, ptr %0, i64 8
  %4 = load ptr, ptr %3, align 8, !tbaa !9
  %5 = getelementptr inbounds nuw i8, ptr %4, i64 72
  %6 = load ptr, ptr %5, align 8, !tbaa !100
  %.not = icmp eq ptr %6, null
  br i1 %.not, label %8, label %7

7:                                                ; preds = %2
  tail call void @_Z25llama_grammar_accept_implR13llama_grammari(ptr noundef nonnull align 8 dereferenceable(152) %6, i32 noundef %1)
  br label %8

8:                                                ; preds = %7, %2
  ret void
}